target datalayout = "e-m:e-p270:32:32-p271:32:32-p272:64:64-i64:64-i128:128-f80:128-n8:16:32:64-S128"
target triple = "x86_64-pc-linux-gnu"

%struct.stbtt__buf = type { ptr, i32, i32 }
%struct.stbtt_fontinfo = type { ptr, ptr, i32, i32, i32, i32, i32, i32, i32, i32, i32, i32, i32, i32, %struct.stbtt__buf, %struct.stbtt__buf, %struct.stbtt__buf, %struct.stbtt__buf, %struct.stbtt__buf, %struct.stbtt__buf }

; Function Attrs: nounwind uwtable
define zeroext i16 @ttUSHORT(ptr noundef %0) #0 {
  %2 = alloca ptr, align 8
  store ptr %0, ptr %2, align 8, !tbaa !25
  %3 = load ptr, ptr %2, align 8, !tbaa !25
  %4 = getelementptr inbounds i8, ptr %3, i64 0
  %5 = load i8, ptr %4, align 1, !tbaa !13
  %6 = zext i8 %5 to i32
  %7 = mul nsw i32 %6, 256
  %8 = load ptr, ptr %2, align 8, !tbaa !25
  %9 = getelementptr inbounds i8, ptr %8, i64 1
  %10 = load i8, ptr %9, align 1, !tbaa !13
  %11 = zext i8 %10 to i32
  %12 = add nsw i32 %7, %11
  %13 = trunc i32 %12 to i16
  ret i16 %13
}

; Function Attrs: nounwind uwtable
define i32 @stbtt_GetKerningTableLength(ptr noundef %0) #0 {
  %2 = alloca i32, align 4
  %3 = alloca ptr, align 8
  %4 = alloca ptr, align 8
  %5 = alloca i32, align 4
  store ptr %0, ptr %3, align 8, !tbaa !28
  call void @llvm.lifetime.start.p0(i64 8, ptr %4) #8
  %6 = load ptr, ptr %3, align 8, !tbaa !28
  %7 = getelementptr inbounds nuw %struct.stbtt_fontinfo, ptr %6, i32 0, i32 1
  %8 = load ptr, ptr %7, align 8, !tbaa !32
  %9 = load ptr, ptr %3, align 8, !tbaa !28
  %10 = getelementptr inbounds nuw %struct.stbtt_fontinfo, ptr %9, i32 0, i32 9
  %11 = load i32, ptr %10, align 4, !tbaa !39
  %12 = sext i32 %11 to i64
  %13 = getelementptr inbounds i8, ptr %8, i64 %12
  store ptr %13, ptr %4, align 8, !tbaa !25
  %14 = load ptr, ptr %3, align 8, !tbaa !28
  %15 = getelementptr inbounds nuw %struct.stbtt_fontinfo, ptr %14, i32 0, i32 9
  %16 = load i32, ptr %15, align 4, !tbaa !39
  %17 = icmp ne i32 %16, 0
  br i1 %17, label %19, label %18

18:                                               ; preds = %1
  store i32 0, ptr %2, align 4
  store i32 1, ptr %5, align 4
  br label %38

19:                                               ; preds = %1
  %20 = load ptr, ptr %4, align 8, !tbaa !25
  %21 = getelementptr inbounds i8, ptr %20, i64 2
  %22 = call zeroext i16 @ttUSHORT(ptr noundef %21)
  %23 = zext i16 %22 to i32
  %24 = icmp slt i32 %23, 1
  br i1 %24, label %25, label %26

25:                                               ; preds = %19
  store i32 0, ptr %2, align 4
  store i32 1, ptr %5, align 4
  br label %38

26:                                               ; preds = %19
  %27 = load ptr, ptr %4, align 8, !tbaa !25
  %28 = getelementptr inbounds i8, ptr %27, i64 8
  %29 = call zeroext i16 @ttUSHORT(ptr noundef %28)
  %30 = zext i16 %29 to i32
  %31 = icmp ne i32 %30, 1
  br i1 %31, label %32, label %33

32:                                               ; preds = %26
  store i32 0, ptr %2, align 4
  store i32 1, ptr %5, align 4
  br label %38

33:                                               ; preds = %26
  %34 = load ptr, ptr %4, align 8, !tbaa !25
  %35 = getelementptr inbounds i8, ptr %34, i64 10
  %36 = call zeroext i16 @ttUSHORT(ptr noundef %35)
  %37 = zext i16 %36 to i32
  store i32 %37, ptr %2, align 4
  store i32 1, ptr %5, align 4
  br label %38

38:                                               ; preds = %33, %32, %25, %18
  call void @llvm.lifetime.end.p0(i64 8, ptr %4) #8
  %39 = load i32, ptr %2, align 4
  ret i32 %39
}