; Function Attrs: mustprogress nofree norecurse nosync nounwind willreturn memory(read, inaccessiblemem: none) uwtable
define range(i32 0, 65536) i32 @stbtt_GetKerningTableLength(ptr noundef readonly captures(none) %0) local_unnamed_addr #1 {
  %2 = getelementptr inbounds nuw i8, ptr %0, i64 8
  %3 = load ptr, ptr %2, align 8, !tbaa !23
  %4 = getelementptr inbounds nuw i8, ptr %0, i64 44
  %5 = load i32, ptr %4, align 4, !tbaa !30
  %6 = sext i32 %5 to i64
  %7 = getelementptr inbounds i8, ptr %3, i64 %6
  %.not = icmp eq i32 %5, 0
  br i1 %.not, label %36, label %8

8:                                                ; preds = %1
  %9 = getelementptr inbounds nuw i8, ptr %7, i64 2
  %10 = load i8, ptr %9, align 1, !tbaa !12
  %11 = zext i8 %10 to i16
  %12 = shl nuw i16 %11, 8
  %13 = getelementptr inbounds nuw i8, ptr %7, i64 3
  %14 = load i8, ptr %13, align 1, !tbaa !12
  %15 = zext i8 %14 to i16
  %16 = or disjoint i16 %12, %15
  %17 = icmp eq i16 %16, 0
  br i1 %17, label %36, label %18

18:                                               ; preds = %8
  %19 = getelementptr inbounds nuw i8, ptr %7, i64 8
  %20 = load i8, ptr %19, align 1, !tbaa !12
  %21 = zext i8 %20 to i16
  %22 = shl nuw i16 %21, 8
  %23 = getelementptr inbounds nuw i8, ptr %7, i64 9
  %24 = load i8, ptr %23, align 1, !tbaa !12
  %25 = zext i8 %24 to i16
  %26 = or disjoint i16 %22, %25
  %.not6 = icmp eq i16 %26, 1
  br i1 %.not6, label %27, label %36

27:                                               ; preds = %18
  %28 = getelementptr inbounds nuw i8, ptr %7, i64 10
  %29 = load i8, ptr %28, align 1, !tbaa !12
  %30 = zext i8 %29 to i32
  %31 = shl nuw nsw i32 %30, 8
  %32 = getelementptr inbounds nuw i8, ptr %7, i64 11
  %33 = load i8, ptr %32, align 1, !tbaa !12
  %34 = zext i8 %33 to i32
  %35 = or disjoint i32 %31, %34
  br label %36

36:                                               ; preds = %18, %8, %1, %27
  %.0 = phi i32 [ %35, %27 ], [ 0, %1 ], [ 0, %8 ], [ 0, %18 ]
  ret i32 %.0
}